target datalayout = "e-m:e-p270:32:32-p271:32:32-p272:64:64-i64:64-i128:128-f80:128-n8:16:32:64-S128"
target triple = "x86_64-pc-linux-gnu"

%struct.slurm_jc_conf = type { i8, ptr, ptr, ptr, i32, i32, ptr, i8, ptr, i8 }

@jc_conf = internal global ptr null, align 8
@plugin_disabled = internal global i8 0, align 1
@step_ns_fd = internal global i32 -1, align 4
@.str.8 = private unnamed_addr constant [7 x i8] c"%s: %m\00", align 1
@__func__.container_p_join_external = private unnamed_addr constant [26 x i8] c"container_p_join_external\00", align 1
@.str.25 = private unnamed_addr constant [6 x i8] c"%s/%u\00", align 1
@.str.26 = private unnamed_addr constant [7 x i8] c"%s/.ns\00", align 1
@.str.27 = private unnamed_addr constant [7 x i8] c"%s/.%u\00", align 1

; Function Attrs: nounwind uwtable
define internal void @_create_paths(i32 noundef %0, ptr noundef %1, ptr noundef %2, ptr noundef %3) #0 {
  %5 = alloca i32, align 4
  %6 = alloca ptr, align 8
  %7 = alloca ptr, align 8
  %8 = alloca ptr, align 8
  store i32 %0, ptr %5, align 4
  store ptr %1, ptr %6, align 8
  store ptr %2, ptr %7, align 8
  store ptr %3, ptr %8, align 8
  %9 = load ptr, ptr %6, align 8
  %10 = load ptr, ptr @jc_conf, align 8
  %11 = getelementptr inbounds nuw %struct.slurm_jc_conf, ptr %10, i32 0, i32 1
  %12 = load ptr, ptr %11, align 8
  %13 = load i32, ptr %5, align 4
  call void (ptr, ptr, ...) @slurm_xstrfmtcat(ptr noundef %9, ptr noundef @.str.25, ptr noundef %12, i32 noundef %13)
  %14 = load ptr, ptr %7, align 8
  %15 = icmp ne ptr %14, null
  br i1 %15, label %16, label %20

16:                                               ; preds = %4
  %17 = load ptr, ptr %7, align 8
  %18 = load ptr, ptr %6, align 8
  %19 = load ptr, ptr %18, align 8
  call void (ptr, ptr, ...) @slurm_xstrfmtcat(ptr noundef %17, ptr noundef @.str.26, ptr noundef %19)
  br label %20

20:                                               ; preds = %16, %4
  %21 = load ptr, ptr %8, align 8
  %22 = icmp ne ptr %21, null
  br i1 %22, label %23, label %28

23:                                               ; preds = %20
  %24 = load ptr, ptr %8, align 8
  %25 = load ptr, ptr %6, align 8
  %26 = load ptr, ptr %25, align 8
  %27 = load i32, ptr %5, align 4
  call void (ptr, ptr, ...) @slurm_xstrfmtcat(ptr noundef %24, ptr noundef @.str.27, ptr noundef %26, i32 noundef %27)
  br label %28

28:                                               ; preds = %23, %20
  ret void
}

; Function Attrs: nounwind uwtable
define dso_local i32 @container_p_join_external(i32 noundef %0) #0 {
  %2 = alloca i32, align 4
  %3 = alloca i32, align 4
  %4 = alloca ptr, align 8
  %5 = alloca ptr, align 8
  %6 = alloca i32, align 4
  store i32 %0, ptr %3, align 4
  call void @llvm.lifetime.start.p0(i64 8, ptr %4) #8
  store ptr null, ptr %4, align 8
  call void @llvm.lifetime.start.p0(i64 8, ptr %5) #8
  store ptr null, ptr %5, align 8
  %7 = load i8, ptr @plugin_disabled, align 1, !range !8, !noundef !9
  %8 = trunc i8 %7 to i1
  br i1 %8, label %9, label %10

9:                                                ; preds = %1
  store i32 0, ptr %2, align 4
  store i32 1, ptr %6, align 4
  br label %24

10:                                               ; preds = %1
  %11 = load i32, ptr %3, align 4
  call void @_create_paths(i32 noundef %11, ptr noundef %4, ptr noundef %5, ptr noundef null)
  %12 = load i32, ptr @step_ns_fd, align 4
  %13 = icmp eq i32 %12, -1
  br i1 %13, label %14, label %22

14:                                               ; preds = %10
  %15 = load ptr, ptr %5, align 8
  %16 = call i32 (ptr, i32, ...) @open(ptr noundef %15, i32 noundef 0)
  store i32 %16, ptr @step_ns_fd, align 4
  %17 = load i32, ptr @step_ns_fd, align 4
  %18 = icmp eq i32 %17, -1
  br i1 %18, label %19, label %21

19:                                               ; preds = %14
  %20 = call i32 (ptr, ...) @slurm_error(ptr noundef @.str.8, ptr noundef @__func__.container_p_join_external)
  br label %21

21:                                               ; preds = %19, %14
  br label %22

22:                                               ; preds = %21, %10
  call void @slurm_xfree(ptr noundef %4)
  call void @slurm_xfree(ptr noundef %5)
  %23 = load i32, ptr @step_ns_fd, align 4
  store i32 %23, ptr %2, align 4
  store i32 1, ptr %6, align 4
  br label %24

24:                                               ; preds = %22, %9
  call void @llvm.lifetime.end.p0(i64 8, ptr %5) #8
  call void @llvm.lifetime.end.p0(i64 8, ptr %4) #8
  %25 = load i32, ptr %2, align 4
  ret i32 %25
}