; Function Attrs: nounwind uwtable
define dso_local i32 @container_p_join_external(i32 noundef %0) local_unnamed_addr #0 {
  %2 = alloca ptr, align 8
  %3 = alloca ptr, align 8
  call void @llvm.lifetime.start.p0(i64 8, ptr nonnull %2) #12
  store ptr null, ptr %2, align 8
  call void @llvm.lifetime.start.p0(i64 8, ptr nonnull %3) #12
  store ptr null, ptr %3, align 8
  %4 = load i8, ptr @plugin_disabled, align 1, !range !8, !noundef !9
  %5 = trunc nuw i8 %4 to i1
  br i1 %5, label %21, label %6

6:                                                ; preds = %1
  %7 = load ptr, ptr @jc_conf, align 8
  %8 = getelementptr inbounds nuw i8, ptr %7, i64 8
  %9 = load ptr, ptr %8, align 8
  call void (ptr, ptr, ...) @slurm_xstrfmtcat(ptr noundef nonnull %2, ptr noundef nonnull @.str.25, ptr noundef %9, i32 noundef %0) #12
  %10 = load ptr, ptr %2, align 8
  call void (ptr, ptr, ...) @slurm_xstrfmtcat(ptr noundef nonnull %3, ptr noundef nonnull @.str.26, ptr noundef %10) #12
  %11 = load i32, ptr @step_ns_fd, align 4
  %12 = icmp eq i32 %11, -1
  br i1 %12, label %13, label %19

13:                                               ; preds = %6
  %14 = load ptr, ptr %3, align 8
  %15 = call i32 (ptr, i32, ...) @open(ptr noundef %14, i32 noundef 0) #12
  store i32 %15, ptr @step_ns_fd, align 4
  %16 = icmp eq i32 %15, -1
  br i1 %16, label %17, label %19

17:                                               ; preds = %13
  %18 = call i32 (ptr, ...) @slurm_error(ptr noundef nonnull @.str.8, ptr noundef nonnull @__func__.container_p_join_external) #12
  br label %19

19:                                               ; preds = %13, %17, %6
  call void @slurm_xfree(ptr noundef nonnull %2) #12
  call void @slurm_xfree(ptr noundef nonnull %3) #12
  %20 = load i32, ptr @step_ns_fd, align 4
  br label %21

21:                                               ; preds = %1, %19
  %.0 = phi i32 [ %20, %19 ], [ 0, %1 ]
  call void @llvm.lifetime.end.p0(i64 8, ptr nonnull %3) #12
  call void @llvm.lifetime.end.p0(i64 8, ptr nonnull %2) #12
  ret i32 %.0
}